; Function Attrs: mustprogress uwtable
define noundef i32 @_ZN3zmq15radio_session_t8pull_msgEPNS_5msg_tE(ptr noundef nonnull align 8 dereferenceable(1696) %this, ptr noundef %msg_) unnamed_addr #0 align 2 {
entry:
  %_state = getelementptr inbounds i8, ptr %this, i64 1624
  %0 = load i32, ptr %_state, align 8
  %cmp = icmp eq i32 %0, 0
  %_pending_msg = getelementptr inbounds i8, ptr %this, i64 1632
  br i1 %cmp, label %if.then, label %if.end20

if.then:                                          ; preds = %entry
  %call = tail call noundef i32 @_ZN3zmq14session_base_t8pull_msgEPNS_5msg_tE(ptr noundef nonnull align 8 dereferenceable(1624) %this, ptr noundef nonnull %_pending_msg)
  %cmp2.not = icmp eq i32 %call, 0
  br i1 %cmp2.not, label %if.end, label %return

if.end:                                           ; preds = %if.then
  %call5 = tail call noundef ptr @_ZNK3zmq5msg_t5groupEv(ptr noundef nonnull align 8 dereferenceable(64) %_pending_msg)
  %call6 = tail call i64 @strlen(ptr noundef nonnull dereferenceable(1) %call5) #26
  %sext = shl i64 %call6, 32
  %conv7 = ashr exact i64 %sext, 32
  %call8 = tail call noundef i32 @_ZN3zmq5msg_t9init_sizeEm(ptr noundef nonnull align 8 dereferenceable(64) %msg_, i64 noundef %conv7)
  %cmp9.not = icmp eq i32 %call8, 0
  br i1 %cmp9.not, label %do.end, label %if.then11

if.then11:                                        ; preds = %if.end
  %call12 = tail call ptr @__errno_location() #27
  %1 = load i32, ptr %call12, align 4
  %call13 = tail call ptr @strerror(i32 noundef %1) #21
  %2 = load ptr, ptr @stderr, align 8
  %call14 = tail call i32 (ptr, ptr, ...) @fprintf(ptr noundef %2, ptr noundef nonnull @.str.5, ptr noundef %call13, ptr noundef nonnull @.str.2, i32 noundef 241) #23
  %3 = load ptr, ptr @stderr, align 8
  %call15 = tail call i32 @fflush(ptr noundef %3)
  tail call void @_ZN3zmq9zmq_abortEPKc(ptr noundef %call13)
  br label %do.end

do.end:                                           ; preds = %if.end, %if.then11
  tail call void @_ZN3zmq5msg_t9set_flagsEh(ptr noundef nonnull align 8 dereferenceable(64) %msg_, i8 noundef zeroext 1)
  %call17 = tail call noundef ptr @_ZN3zmq5msg_t4dataEv(ptr noundef nonnull align 8 dereferenceable(64) %msg_)
  tail call void @llvm.memcpy.p0.p0.i64(ptr align 1 %call17, ptr align 1 %call5, i64 %conv7, i1 false)
  br label %return.sink.split

if.end20:                                         ; preds = %entry
  tail call void @llvm.memcpy.p0.p0.i64(ptr noundef nonnull align 8 dereferenceable(64) %msg_, ptr noundef nonnull align 8 dereferenceable(64) %_pending_msg, i64 64, i1 false)
  br label %return.sink.split

return.sink.split:                                ; preds = %do.end, %if.end20
  %.sink = phi i32 [ 0, %if.end20 ], [ 1, %do.end ]
  store i32 %.sink, ptr %_state, align 8
  br label %return

return:                                           ; preds = %return.sink.split, %if.then
  %retval.0 = phi i32 [ %call, %if.then ], [ 0, %return.sink.split ]
  ret i32 %retval.0
}